Certificate:
    Data:
        Version: 3 (0x2)
        Serial Number:
            bd:43:b3:93:53:84:5d:a4
    Signature Algorithm: sha256WithRSAEncryption
        Issuer: C=JA, ST=Tokyo, O=Default Company Ltd, CN=Private CA
        Validity
            Not Before: Apr 25 06:07:05 2022 GMT
            Not After : Apr 22 06:07:05 2032 GMT
        Subject: C=JA, ST=Tokyo, O=Default Company Ltd, CN=Private CA
        Subject Public Key Info:
            Public Key Algorithm: rsaEncryption
                Public-Key: (2048 bit)
                Modulus:
                    00:a5:85:59:73:f2:03:50:f6:c1:fe:08:43:82:26:
                    41:2b:c6:fb:4d:2d:6c:2e:24:be:7f:19:c7:52:ed:
                    ed:b2:76:a7:8f:b6:14:94:54:a2:33:4b:ac:f9:2a:
                    e0:aa:de:41:cb:a0:b4:bd:8c:99:e7:43:ff:bb:78:
                    88:b9:c8:07:84:e2:2b:12:2d:30:50:2e:e6:65:3e:
                    a1:ee:b0:05:5d:5b:e6:43:e9:2d:41:b4:0d:f6:3e:
                    b5:d6:33:4e:cc:36:6f:23:2b:bd:95:5c:d8:f2:7d:
                    4a:a4:8f:82:cc:30:00:e0:2a:06:83:52:81:ee:45:
                    6b:6e:9d:b6:c2:91:c0:4e:db:aa:c2:6f:62:e7:0e:
                    5c:0b:d7:8a:6e:90:fc:68:c4:77:30:18:6d:2d:63:
                    ba:4c:f1:92:2c:fc:d9:f8:9f:83:a5:20:b1:67:19:
                    12:7a:b7:2d:95:bb:db:e3:b3:59:1d:a4:e9:6e:75:
                    7f:38:79:22:60:d4:78:3d:ff:e1:20:39:99:e0:8a:
                    3b:5f:09:bf:2e:0f:2a:8d:49:fd:8d:ab:87:ce:84:
                    55:00:a5:f3:4a:bc:ab:fd:b6:ed:c8:32:d5:f1:94:
                    c1:fb:ae:32:43:47:51:7b:99:56:23:f9:e1:b0:a3:
                    64:57:fe:56:25:b3:69:ac:df:a1:a1:0d:1c:82:05:
                    c9:4b
                Exponent: 65537 (0x10001)
        X509v3 extensions:
            X509v3 Subject Key Identifier:
                8A:1A:50:E9:2F:A6:1A:33:F7:4A:8D:9E:9F:C7:D0:F6:F4:18:4A:6B
            X509v3 Authority Key Identifier:
                keyid:8A:1A:50:E9:2F:A6:1A:33:F7:4A:8D:9E:9F:C7:D0:F6:F4:18:4A:6B

            X509v3 Basic Constraints:
                CA:TRUE
            Netscape Cert Type:
                SSL CA, S/MIME CA
    Signature Algorithm: sha256WithRSAEncryption
         28:7d:99:15:7f:e7:e2:f7:7f:31:c7:94:b9:b6:62:fb:bc:cd:
         13:71:29:da:a7:40:eb:72:ee:dd:4f:6c:cc:93:dd:de:ab:e9:
         17:81:07:b6:7f:47:8d:ff:c8:0b:83:d0:64:a6:ef:73:8e:98:
         ba:d9:e8:31:b5:77:e3:63:9a:4d:ef:8c:2d:43:44:4e:2f:e3:
         3c:ee:cf:30:ae:c7:49:bc:c5:89:7e:cd:2a:fc:23:58:c0:54:
         7c:b6:dd:a7:74:14:83:2a:19:75:dd:e9:7a:35:af:b0:cd:51:
         93:a4:bb:50:3c:19:51:5d:ec:9f:4b:46:0b:be:2c:d2:bc:2d:
         69:87:da:c0:40:24:14:cc:30:24:b7:56:a2:cf:60:5c:f5:32:
         61:a0:65:e9:7d:3f:8d:e8:5b:43:a7:9c:59:da:85:d3:33:42:
         a6:59:5b:f2:4b:58:4b:8e:bf:78:c1:ca:de:78:d1:08:6b:02:
         8c:f0:22:0b:cd:bb:ad:34:75:bf:28:16:81:1b:47:8a:94:6b:
         ea:2b:54:04:ef:35:e3:7a:c0:d4:f0:f8:46:57:b0:13:ac:52:
         35:23:d9:79:57:af:0a:21:ba:8b:74:92:7f:e6:fd:88:2a:45:
         07:24:ff:32:fc:50:f1:31:8e:4a:b7:c7:c6:14:ff:f6:b4:fa:
         ab:00:3b:5a
-----BEGIN CERTIFICATE-----
MIIDhjCCAm6gAwIBAgIJAL1Ds5NThF2kMA0GCSqGSIb3DQEBCwUAMFAxCzAJBgNV
BAYTAkpBMQ4wDAYDVQQIDAVUb2t5bzEcMBoGA1UECgwTRGVmYXVsdCBDb21wYW55
IEx0ZDETMBEGA1UEAwwKUHJpdmF0ZSBDQTAeFw0yMjA0MjUwNjA3MDVaFw0zMjA0
MjIwNjA3MDVaMFAxCzAJBgNVBAYTAkpBMQ4wDAYDVQQIDAVUb2t5bzEcMBoGA1UE
CgwTRGVmYXVsdCBDb21wYW55IEx0ZDETMBEGA1UEAwwKUHJpdmF0ZSBDQTCCASIw
DQYJKoZIhvcNAQEBBQADggEPADCCAQoCggEBAKWFWXPyA1D2wf4IQ4ImQSvG+00t
bC4kvn8Zx1Lt7bJ2p4+2FJRUojNLrPkq4KreQcugtL2MmedD/7t4iLnIB4TiKxIt
MFAu5mU+oe6wBV1b5kPpLUG0DfY+tdYzTsw2byMrvZVc2PJ9SqSPgswwAOAqBoNS
ge5Fa26dtsKRwE7bqsJvYucOXAvXim6Q/GjEdzAYbS1jukzxkiz82fifg6UgsWcZ
Enq3LZW72+OzWR2k6W51fzh5ImDUeD3/4SA5meCKO18Jvy4PKo1J/Y2rh86EVQCl
80q8q/227cgy1fGUwfuuMkNHUXuZViP54bCjZFf+ViWzaazfoaENHIIFyUsCAwEA
AaNjMGEwHQYDVR0OBBYEFIoaUOkvphoz90qNnp/H0Pb0GEprMB8GA1UdIwQYMBaA
FIoaUOkvphoz90qNnp/H0Pb0GEprMAwGA1UdEwQFMAMBAf8wEQYJYIZIAYb4QgEB
BAQDAgEGMA0GCSqGSIb3DQEBCwUAA4IBAQAofZkVf+fi938xx5S5tmL7vM0TcSna
p0Drcu7dT2zMk93eq+kXgQe2f0eN/8gLg9Bkpu9zjpi62egxtXfjY5pN74wtQ0RO
L+M87s8wrsdJvMWJfs0q/CNYwFR8tt2ndBSDKhl13el6Na+wzVGTpLtQPBlRXeyf
S0YLvizSvC1ph9rAQCQUzDAkt1aiz2Bc9TJhoGXpfT+N6FtDp5xZ2oXTM0KmWVvy
S1hLjr94wcreeNEIawKM8CILzbutNHW/KBaBG0eKlGvqK1QE7zXjesDU8PhGV7AT
rFI1I9l5V68KIbqLdJJ/5v2IKkUHJP8y/FDxMY5Kt8fGFP/2tPqrADta
-----END CERTIFICATE-----