Certificate:
    Data:
        Version: 3 (0x2)
        Serial Number:
            bd:43:b3:93:53:84:5d:a5
    Signature Algorithm: sha256WithRSAEncryption
        Issuer: C=JA, ST=Tokyo, O=Default Company Ltd, CN=Private CA
        Validity
            Not Before: Apr 25 06:32:37 2022 GMT
            Not After : Apr 22 06:32:37 2032 GMT
        Subject: C=JA, ST=Tokyo, L=Default City, O=Default Company Ltd, CN=test-consumer-connector
        Subject Public Key Info:
            Public Key Algorithm: rsaEncryption
                Public-Key: (2048 bit)
                Modulus:
                    00:b3:99:11:ff:18:86:86:b7:7e:be:70:23:eb:03:
                    77:7b:ef:9c:df:53:6c:5c:5d:6d:43:69:b2:24:1d:
                    ba:a9:fb:f9:65:f7:a5:cb:01:83:76:13:3d:0a:d1:
                    72:f2:0d:d8:aa:bc:de:52:bb:69:b8:b5:5f:a1:eb:
                    28:c3:43:61:01:9e:77:6b:42:43:85:c9:3b:e4:46:
                    25:17:b9:29:ce:37:a9:21:db:a1:a2:72:7a:de:2b:
                    b3:dd:db:a7:25:61:69:67:e4:f7:1e:46:f7:fd:77:
                    43:92:a3:39:bc:32:41:3e:5f:c4:df:f3:cb:6f:c5:
                    23:4c:e5:3f:a0:df:28:09:83:78:2c:29:04:ce:60:
                    f7:4b:71:99:9e:ce:38:a0:0f:0a:00:bf:c2:21:b1:
                    7e:33:b1:bd:3b:46:fc:cd:ca:74:9b:81:d9:54:5e:
                    6d:c9:46:46:38:bf:a3:85:03:34:7e:c9:01:3a:84:
                    16:d3:90:8d:84:63:fa:58:7b:35:7a:16:da:0b:1f:
                    20:b5:e0:23:9b:89:47:a8:58:35:87:f7:a7:8c:1c:
                    5d:53:d5:54:54:a9:86:74:18:49:71:2c:d8:14:a6:
                    48:5a:8d:be:ab:1d:20:d5:1a:71:2a:82:f5:ce:c0:
                    2f:3e:e5:d5:2a:94:49:26:ae:c5:16:64:e6:ad:cd:
                    f3:cb
                Exponent: 65537 (0x10001)
        X509v3 extensions:
            X509v3 Basic Constraints:
                CA:FALSE
            Netscape Cert Type:
                SSL Client, S/MIME, Object Signing
            Netscape Comment:
                OpenSSL Generated Certificate
            X509v3 Subject Key Identifier:
                E3:09:A4:9D:59:40:02:C6:DA:FC:CC:6C:9B:34:1F:3C:AF:A3:08:A5
            X509v3 Authority Key Identifier:
                keyid:8A:1A:50:E9:2F:A6:1A:33:F7:4A:8D:9E:9F:C7:D0:F6:F4:18:4A:6B

    Signature Algorithm: sha256WithRSAEncryption
         79:5a:67:b9:d4:25:f5:0c:24:ad:16:fb:2e:21:76:02:b6:d2:
         50:1f:cd:c4:8b:54:d9:ac:1f:d8:77:e0:01:c1:48:a2:ca:44:
         6e:c3:2e:48:88:90:c8:5d:f2:8c:dd:be:16:8c:08:17:10:12:
         10:a9:22:f3:7f:08:56:d5:a2:97:e2:3d:08:b0:78:27:39:7b:
         d8:7c:2c:f9:22:52:e4:e6:7a:28:d4:2f:e8:f0:33:e1:32:f9:
         29:b3:9e:9b:ef:57:41:ea:f3:a8:00:87:dd:67:b6:59:bd:a3:
         4d:8d:d1:ca:c5:a2:ef:fe:0d:74:16:8b:af:4e:0a:e8:73:49:
         99:f1:82:17:a7:11:c8:4f:5d:0d:38:9a:f5:0e:9f:06:29:4e:
         be:74:16:4b:2c:4c:9d:77:3f:80:f4:a8:5d:f8:c1:ff:52:f0:
         29:e6:86:cb:ec:65:06:27:75:07:f5:39:bc:f9:8d:24:7f:5a:
         25:bb:05:8d:93:5b:5c:c2:5b:7a:e9:ef:c2:a7:33:8f:12:f7:
         b4:e2:8e:8e:39:5b:c8:4a:fb:f7:4e:f7:24:c6:9d:93:e5:dc:
         53:f2:17:21:eb:a4:5b:62:42:ce:8a:08:1d:15:1b:07:3f:cf:
         9f:c7:84:92:cf:c8:87:33:cf:54:fc:29:c2:aa:b9:88:f6:ad:
         5e:91:4b:de
-----BEGIN CERTIFICATE-----
MIID1zCCAr+gAwIBAgIJAL1Ds5NThF2lMA0GCSqGSIb3DQEBCwUAMFAxCzAJBgNV
BAYTAkpBMQ4wDAYDVQQIDAVUb2t5bzEcMBoGA1UECgwTRGVmYXVsdCBDb21wYW55
IEx0ZDETMBEGA1UEAwwKUHJpdmF0ZSBDQTAeFw0yMjA0MjUwNjMyMzdaFw0zMjA0
MjIwNjMyMzdaMHQxCzAJBgNVBAYTAkpBMQ4wDAYDVQQIDAVUb2t5bzEVMBMGA1UE
BwwMRGVmYXVsdCBDaXR5MRwwGgYDVQQKDBNEZWZhdWx0IENvbXBhbnkgTHRkMSAw
HgYDVQQDDBd0ZXN0LWNvbnN1bWVyLWNvbm5lY3RvcjCCASIwDQYJKoZIhvcNAQEB
BQADggEPADCCAQoCggEBALOZEf8Yhoa3fr5wI+sDd3vvnN9TbFxdbUNpsiQduqn7
+WX3pcsBg3YTPQrRcvIN2Kq83lK7abi1X6HrKMNDYQGed2tCQ4XJO+RGJRe5Kc43
qSHboaJyet4rs93bpyVhaWfk9x5G9/13Q5KjObwyQT5fxN/zy2/FI0zlP6DfKAmD
eCwpBM5g90txmZ7OOKAPCgC/wiGxfjOxvTtG/M3KdJuB2VRebclGRji/o4UDNH7J
ATqEFtOQjYRj+lh7NXoW2gsfILXgI5uJR6hYNYf3p4wcXVPVVFSphnQYSXEs2BSm
SFqNvqsdINUacSqC9c7ALz7l1SqUSSauxRZk5q3N88sCAwEAAaOBjzCBjDAJBgNV
HRMEAjAAMBEGCWCGSAGG+EIBAQQEAwIEsDAsBglghkgBhvhCAQ0EHxYdT3BlblNT
TCBHZW5lcmF0ZWQgQ2VydGlmaWNhdGUwHQYDVR0OBBYEFOMJpJ1ZQALG2vzMbJs0
HzyvowilMB8GA1UdIwQYMBaAFIoaUOkvphoz90qNnp/H0Pb0GEprMA0GCSqGSIb3
DQEBCwUAA4IBAQB5Wme51CX1DCStFvsuIXYCttJQH83Ei1TZrB/Yd+ABwUiiykRu
wy5IiJDIXfKM3b4WjAgXEBIQqSLzfwhW1aKX4j0IsHgnOXvYfCz5IlLk5noo1C/o
8DPhMvkps56b71dB6vOoAIfdZ7ZZvaNNjdHKxaLv/g10FouvTgroc0mZ8YIXpxHI
T10NOJr1Dp8GKU6+dBZLLEyddz+A9Khd+MH/UvAp5obL7GUGJ3UH9Tm8+Y0kf1ol
uwWNk1tcwlt66e/CpzOPEve04o6OOVvISvv3Tvckxp2T5dxT8hch66RbYkLOiggd
FRsHP8+fx4SSz8iHM89U/CnCqrmI9q1ekUve
-----END CERTIFICATE-----